target datalayout = "e-m:e-p270:32:32-p271:32:32-p272:64:64-i64:64-i128:128-f80:128-n8:16:32:64-S128"
target triple = "x86_64-pc-linux-gnu"

%struct.IPpmd7 = type { ptr, ptr, ptr, ptr, ptr, ptr, ptr, ptr, ptr, ptr, ptr, ptr }
%struct.la_zstream = type { ptr, i64, i64, ptr, i64, i64, i32, ptr, i32, ptr, ptr, ptr }
%struct.ppmd_stream = type { i32, %struct.CPpmd7, %struct.CPpmd7z_RangeEnc, %struct.IByteOut, ptr, ptr, ptr, i64 }
%struct.CPpmd7 = type { ptr, ptr, ptr, i32, i32, i32, i32, i32, i32, i32, i32, i32, ptr, ptr, ptr, ptr, ptr, i32, [38 x i8], [128 x i8], [38 x i32], [256 x i8], [256 x i8], [256 x i8], %struct.CPpmd_See, [25 x [16 x %struct.CPpmd_See]], [128 x [64 x i16]] }
%struct.CPpmd_See = type { i16, i8, i8 }
%struct.CPpmd7z_RangeEnc = type { i64, i32, i8, i64, ptr }
%struct.IByteOut = type { ptr, ptr }

@__archive_ppmd7_functions = external constant %struct.IPpmd7, align 8

; Function Attrs: nounwind uwtable
define internal i32 @compression_code_ppmd(ptr noundef %0, ptr noundef %1, i32 noundef %2) #0 {
  %4 = alloca i32, align 4
  %5 = alloca ptr, align 8
  %6 = alloca ptr, align 8
  %7 = alloca i32, align 4
  %8 = alloca ptr, align 8
  %9 = alloca ptr, align 8
  store ptr %0, ptr %5, align 8
  store ptr %1, ptr %6, align 8
  store i32 %2, ptr %7, align 4
  %10 = load ptr, ptr %6, align 8
  %11 = getelementptr inbounds %struct.la_zstream, ptr %10, i32 0, i32 9
  %12 = load ptr, ptr %11, align 8
  store ptr %12, ptr %8, align 8
  %13 = load ptr, ptr %8, align 8
  %14 = getelementptr inbounds %struct.ppmd_stream, ptr %13, i32 0, i32 7
  %15 = load i64, ptr %14, align 8
  %16 = icmp ne i64 %15, 0
  br i1 %16, label %17, label %76

17:                                               ; preds = %3
  %18 = load ptr, ptr %8, align 8
  %19 = getelementptr inbounds %struct.ppmd_stream, ptr %18, i32 0, i32 5
  %20 = load ptr, ptr %19, align 8
  %21 = load ptr, ptr %8, align 8
  %22 = getelementptr inbounds %struct.ppmd_stream, ptr %21, i32 0, i32 7
  %23 = load i64, ptr %22, align 8
  %24 = sub i64 0, %23
  %25 = getelementptr inbounds i8, ptr %20, i64 %24
  store ptr %25, ptr %9, align 8
  br label %26

26:                                               ; preds = %38, %17
  %27 = load ptr, ptr %6, align 8
  %28 = getelementptr inbounds %struct.la_zstream, ptr %27, i32 0, i32 4
  %29 = load i64, ptr %28, align 8
  %30 = icmp ne i64 %29, 0
  br i1 %30, label %31, label %36

31:                                               ; preds = %26
  %32 = load ptr, ptr %8, align 8
  %33 = getelementptr inbounds %struct.ppmd_stream, ptr %32, i32 0, i32 7
  %34 = load i64, ptr %33, align 8
  %35 = icmp ne i64 %34, 0
  br label %36

36:                                               ; preds = %31, %26
  %37 = phi i1 [ false, %26 ], [ %35, %31 ]
  br i1 %37, label %38, label %58

38:                                               ; preds = %36
  %39 = load ptr, ptr %9, align 8
  %40 = getelementptr inbounds i8, ptr %39, i32 1
  store ptr %40, ptr %9, align 8
  %41 = load i8, ptr %39, align 1
  %42 = load ptr, ptr %6, align 8
  %43 = getelementptr inbounds %struct.la_zstream, ptr %42, i32 0, i32 3
  %44 = load ptr, ptr %43, align 8
  %45 = getelementptr inbounds i8, ptr %44, i32 1
  store ptr %45, ptr %43, align 8
  store i8 %41, ptr %44, align 1
  %46 = load ptr, ptr %6, align 8
  %47 = getelementptr inbounds %struct.la_zstream, ptr %46, i32 0, i32 4
  %48 = load i64, ptr %47, align 8
  %49 = add i64 %48, -1
  store i64 %49, ptr %47, align 8
  %50 = load ptr, ptr %6, align 8
  %51 = getelementptr inbounds %struct.la_zstream, ptr %50, i32 0, i32 5
  %52 = load i64, ptr %51, align 8
  %53 = add i64 %52, 1
  store i64 %53, ptr %51, align 8
  %54 = load ptr, ptr %8, align 8
  %55 = getelementptr inbounds %struct.ppmd_stream, ptr %54, i32 0, i32 7
  %56 = load i64, ptr %55, align 8
  %57 = add i64 %56, -1
  store i64 %57, ptr %55, align 8
  br label %26, !llvm.loop !8

58:                                               ; preds = %36
  %59 = load ptr, ptr %8, align 8
  %60 = getelementptr inbounds %struct.ppmd_stream, ptr %59, i32 0, i32 7
  %61 = load i64, ptr %60, align 8
  %62 = icmp ne i64 %61, 0
  br i1 %62, label %63, label %64

63:                                               ; preds = %58
  store i32 0, ptr %4, align 4
  br label %132

64:                                               ; preds = %58
  %65 = load ptr, ptr %8, align 8
  %66 = getelementptr inbounds %struct.ppmd_stream, ptr %65, i32 0, i32 0
  %67 = load i32, ptr %66, align 8
  %68 = icmp eq i32 %67, 1
  br i1 %68, label %69, label %70

69:                                               ; preds = %64
  store i32 1, ptr %4, align 4
  br label %132

70:                                               ; preds = %64
  %71 = load ptr, ptr %8, align 8
  %72 = getelementptr inbounds %struct.ppmd_stream, ptr %71, i32 0, i32 4
  %73 = load ptr, ptr %72, align 8
  %74 = load ptr, ptr %8, align 8
  %75 = getelementptr inbounds %struct.ppmd_stream, ptr %74, i32 0, i32 5
  store ptr %73, ptr %75, align 8
  br label %76

76:                                               ; preds = %70, %3
  br label %77

77:                                               ; preds = %89, %76
  %78 = load ptr, ptr %6, align 8
  %79 = getelementptr inbounds %struct.la_zstream, ptr %78, i32 0, i32 1
  %80 = load i64, ptr %79, align 8
  %81 = icmp ne i64 %80, 0
  br i1 %81, label %82, label %87

82:                                               ; preds = %77
  %83 = load ptr, ptr %6, align 8
  %84 = getelementptr inbounds %struct.la_zstream, ptr %83, i32 0, i32 4
  %85 = load i64, ptr %84, align 8
  %86 = icmp ne i64 %85, 0
  br label %87

87:                                               ; preds = %82, %77
  %88 = phi i1 [ false, %77 ], [ %86, %82 ]
  br i1 %88, label %89, label %110

89:                                               ; preds = %87
  %90 = getelementptr inbounds %struct.IPpmd7, ptr @__archive_ppmd7_functions, i32 0, i32 11
  %91 = load ptr, ptr %90, align 8
  %92 = load ptr, ptr %8, align 8
  %93 = getelementptr inbounds %struct.ppmd_stream, ptr %92, i32 0, i32 1
  %94 = load ptr, ptr %8, align 8
  %95 = getelementptr inbounds %struct.ppmd_stream, ptr %94, i32 0, i32 2
  %96 = load ptr, ptr %6, align 8
  %97 = getelementptr inbounds %struct.la_zstream, ptr %96, i32 0, i32 0
  %98 = load ptr, ptr %97, align 8
  %99 = getelementptr inbounds i8, ptr %98, i32 1
  store ptr %99, ptr %97, align 8
  %100 = load i8, ptr %98, align 1
  %101 = zext i8 %100 to i32
  call void %91(ptr noundef %93, ptr noundef %95, i32 noundef %101)
  %102 = load ptr, ptr %6, align 8
  %103 = getelementptr inbounds %struct.la_zstream, ptr %102, i32 0, i32 1
  %104 = load i64, ptr %103, align 8
  %105 = add i64 %104, -1
  store i64 %105, ptr %103, align 8
  %106 = load ptr, ptr %6, align 8
  %107 = getelementptr inbounds %struct.la_zstream, ptr %106, i32 0, i32 2
  %108 = load i64, ptr %107, align 8
  %109 = add i64 %108, 1
  store i64 %109, ptr %107, align 8
  br label %77, !llvm.loop !9

110:                                              ; preds = %87
  %111 = load ptr, ptr %6, align 8
  %112 = getelementptr inbounds %struct.la_zstream, ptr %111, i32 0, i32 1
  %113 = load i64, ptr %112, align 8
  %114 = icmp eq i64 %113, 0
  br i1 %114, label %115, label %131

115:                                              ; preds = %110
  %116 = load i32, ptr %7, align 4
  %117 = icmp eq i32 %116, 0
  br i1 %117, label %118, label %131

118:                                              ; preds = %115
  %119 = getelementptr inbounds %struct.IPpmd7, ptr @__archive_ppmd7_functions, i32 0, i32 10
  %120 = load ptr, ptr %119, align 8
  %121 = load ptr, ptr %8, align 8
  %122 = getelementptr inbounds %struct.ppmd_stream, ptr %121, i32 0, i32 2
  call void %120(ptr noundef %122)
  %123 = load ptr, ptr %8, align 8
  %124 = getelementptr inbounds %struct.ppmd_stream, ptr %123, i32 0, i32 0
  store i32 1, ptr %124, align 8
  %125 = load ptr, ptr %8, align 8
  %126 = getelementptr inbounds %struct.ppmd_stream, ptr %125, i32 0, i32 7
  %127 = load i64, ptr %126, align 8
  %128 = icmp eq i64 %127, 0
  br i1 %128, label %129, label %130

129:                                              ; preds = %118
  store i32 1, ptr %4, align 4
  br label %132

130:                                              ; preds = %118
  br label %131

131:                                              ; preds = %130, %115, %110
  store i32 0, ptr %4, align 4
  br label %132

132:                                              ; preds = %131, %129, %69, %63
  %133 = load i32, ptr %4, align 4
  ret i32 %133
}