; Function Attrs: nounwind uwtable
define internal range(i32 0, 2) i32 @compression_code_ppmd(ptr readnone captures(none) %0, ptr noundef captures(none) %1, i32 noundef %2) #0 {
  %4 = getelementptr inbounds nuw i8, ptr %1, i64 72
  %5 = load ptr, ptr %4, align 8
  %6 = getelementptr inbounds nuw i8, ptr %5, i64 19264
  %7 = load i64, ptr %6, align 8
  %.not = icmp eq i64 %7, 0
  br i1 %.not, label %37, label %8

8:                                                ; preds = %3
  %9 = getelementptr inbounds nuw i8, ptr %5, i64 19248
  %10 = getelementptr inbounds nuw i8, ptr %1, i64 32
  %11 = load i64, ptr %10, align 8
  %.not3239 = icmp eq i64 %11, 0
  br i1 %.not3239, label %.critedge.thread44, label %.lr.ph

.lr.ph:                                           ; preds = %8
  %12 = load ptr, ptr %9, align 8
  %13 = sub i64 0, %7
  %14 = getelementptr inbounds i8, ptr %12, i64 %13
  %15 = getelementptr inbounds nuw i8, ptr %1, i64 24
  %16 = getelementptr inbounds nuw i8, ptr %1, i64 40
  br label %17

17:                                               ; preds = %.lr.ph, %19
  %18 = phi i64 [ 1, %.lr.ph ], [ %29, %19 ]
  %.040 = phi ptr [ %14, %.lr.ph ], [ %20, %19 ]
  %.not33 = icmp eq i64 %18, 0
  br i1 %.not33, label %.critedge.thread, label %19

19:                                               ; preds = %17
  %20 = getelementptr inbounds nuw i8, ptr %.040, i64 1
  %21 = load i8, ptr %.040, align 1
  %22 = load ptr, ptr %15, align 8
  %23 = getelementptr inbounds nuw i8, ptr %22, i64 1
  store ptr %23, ptr %15, align 8
  store i8 %21, ptr %22, align 1
  %24 = load i64, ptr %10, align 8
  %25 = add i64 %24, -1
  store i64 %25, ptr %10, align 8
  %26 = load i64, ptr %16, align 8
  %27 = add i64 %26, 1
  store i64 %27, ptr %16, align 8
  %28 = load i64, ptr %6, align 8
  %29 = add i64 %28, -1
  store i64 %29, ptr %6, align 8
  %30 = load i64, ptr %10, align 8
  %.not32 = icmp eq i64 %30, 0
  br i1 %.not32, label %.critedge, label %17, !llvm.loop !16

.critedge:                                        ; preds = %19
  %31 = icmp eq i64 %29, 0
  br i1 %31, label %.critedge.thread, label %.critedge.thread44

.critedge.thread:                                 ; preds = %17, %.critedge
  %32 = load i32, ptr %5, align 8
  %33 = icmp eq i32 %32, 1
  br i1 %33, label %.critedge.thread44, label %34

34:                                               ; preds = %.critedge.thread
  %35 = getelementptr inbounds nuw i8, ptr %5, i64 19240
  %36 = load ptr, ptr %35, align 8
  store ptr %36, ptr %9, align 8
  br label %37

37:                                               ; preds = %34, %3
  %38 = getelementptr inbounds nuw i8, ptr %1, i64 8
  %39 = load i64, ptr %38, align 8
  %.not3541 = icmp eq i64 %39, 0
  br i1 %.not3541, label %.critedge2, label %.lr.ph42

.lr.ph42:                                         ; preds = %37
  %40 = getelementptr inbounds nuw i8, ptr %1, i64 32
  %41 = load ptr, ptr getelementptr inbounds nuw (i8, ptr @__archive_ppmd7_functions, i64 88), align 8
  %42 = getelementptr inbounds nuw i8, ptr %5, i64 8
  %43 = getelementptr inbounds nuw i8, ptr %5, i64 19192
  %44 = getelementptr inbounds nuw i8, ptr %1, i64 16
  br label %45

45:                                               ; preds = %.lr.ph42, %47
  %46 = load i64, ptr %40, align 8
  %.not36 = icmp eq i64 %46, 0
  br i1 %.not36, label %.critedge2.thread, label %47

47:                                               ; preds = %45
  %48 = load ptr, ptr %1, align 8
  %49 = getelementptr inbounds nuw i8, ptr %48, i64 1
  store ptr %49, ptr %1, align 8
  %50 = load i8, ptr %48, align 1
  %51 = zext i8 %50 to i32
  tail call void %41(ptr noundef nonnull %42, ptr noundef nonnull %43, i32 noundef %51) #18
  %52 = load i64, ptr %38, align 8
  %53 = add i64 %52, -1
  store i64 %53, ptr %38, align 8
  %54 = load i64, ptr %44, align 8
  %55 = add i64 %54, 1
  store i64 %55, ptr %44, align 8
  %.not35 = icmp eq i64 %53, 0
  br i1 %.not35, label %.critedge2, label %45, !llvm.loop !17

.critedge2:                                       ; preds = %47, %37
  %56 = icmp eq i32 %2, 0
  br i1 %56, label %57, label %.critedge2.thread

57:                                               ; preds = %.critedge2
  %58 = load ptr, ptr getelementptr inbounds nuw (i8, ptr @__archive_ppmd7_functions, i64 80), align 8
  %59 = getelementptr inbounds nuw i8, ptr %5, i64 19192
  tail call void %58(ptr noundef nonnull %59) #18
  store i32 1, ptr %5, align 8
  %60 = load i64, ptr %6, align 8
  %61 = icmp eq i64 %60, 0
  br i1 %61, label %.critedge.thread44, label %.critedge2.thread

.critedge2.thread:                                ; preds = %45, %57, %.critedge2
  br label %.critedge.thread44

.critedge.thread44:                               ; preds = %8, %57, %.critedge.thread, %.critedge, %.critedge2.thread
  %.030 = phi i32 [ 0, %.critedge2.thread ], [ 0, %.critedge ], [ 1, %.critedge.thread ], [ 1, %57 ], [ 0, %8 ]
  ret i32 %.030
}